; Function Attrs: mustprogress nounwind uwtable
define hidden void @_ZN6hermes2vm6GCBase13untrackObjectEPKNS0_6GCCellEj(ptr noundef nonnull align 8 dereferenceable(741) %this, ptr noundef %cell, i32 noundef %sz) local_unnamed_addr #0 align 2 {
entry:
  %idTracker_ = getelementptr inbounds i8, ptr %this, i64 488
  %pointerBase_ = getelementptr inbounds i8, ptr %this, i64 40
  %0 = load ptr, ptr %pointerBase_, align 8
  %1 = ptrtoint ptr %cell to i64
  %2 = ptrtoint ptr %0 to i64
  %sub.i.i.i = sub i64 %1, %2
  %conv.i.i.i = trunc i64 %sub.i.i.i to i32
  tail call void @_ZN6hermes2vm6GCBase9IDTracker13untrackObjectENS0_17CompressedPointerE(ptr noundef nonnull align 8 dereferenceable(192) %idTracker_, i32 %conv.i.i.i)
  ret void
}